; Function Attrs: mustprogress nounwind uwtable
define hidden void @_ZN13InstanceKlass17clean_method_dataEv(ptr nocapture noundef nonnull readonly align 8 dereferenceable(464) %0) local_unnamed_addr #0 align 2 {
  %2 = getelementptr inbounds i8, ptr %0, i64 400
  %3 = load ptr, ptr %2, align 8
  %4 = load i32, ptr %3, align 8
  %5 = icmp sgt i32 %4, 0
  br i1 %5, label %.lr.ph, label %._crit_edge

.lr.ph:                                           ; preds = %1, %14
  %6 = phi i32 [ %15, %14 ], [ %4, %1 ]
  %7 = phi ptr [ %16, %14 ], [ %3, %1 ]
  %indvars.iv = phi i64 [ %indvars.iv.next, %14 ], [ 0, %1 ]
  %8 = getelementptr inbounds i8, ptr %7, i64 8
  %9 = getelementptr inbounds ptr, ptr %8, i64 %indvars.iv
  %10 = load ptr, ptr %9, align 8
  %11 = getelementptr inbounds i8, ptr %10, i64 16
  %12 = load ptr, ptr %11, align 8
  %.not = icmp eq ptr %12, null
  br i1 %.not, label %14, label %13

13:                                               ; preds = %.lr.ph
  tail call void @_ZN10MethodData17clean_method_dataEb(ptr noundef nonnull align 8 dereferenceable(312) %12, i1 noundef zeroext false) #26
  %.pre = load ptr, ptr %2, align 8
  %.pre8 = load i32, ptr %.pre, align 8
  br label %14

14:                                               ; preds = %.lr.ph, %13
  %15 = phi i32 [ %6, %.lr.ph ], [ %.pre8, %13 ]
  %16 = phi ptr [ %7, %.lr.ph ], [ %.pre, %13 ]
  %indvars.iv.next = add nuw nsw i64 %indvars.iv, 1
  %17 = sext i32 %15 to i64
  %18 = icmp slt i64 %indvars.iv.next, %17
  br i1 %18, label %.lr.ph, label %._crit_edge, !llvm.loop !68

._crit_edge:                                      ; preds = %14, %1
  ret void
}